ccopy_reg
_reconstructor
p0
(csklearn.linear_model.logistic
LogisticRegression
p1
c__builtin__
object
p2
Ntp3
Rp4
(dp5
S'warm_start'
p6
I00
sS'C'
p7
F1.0
sS'max_iter'
p8
I100
sS'verbose'
p9
I0
sS'intercept_scaling'
p10
I1
sS'dual'
p11
I00
sS'fit_intercept'
p12
I01
sS'solver'
p13
S'liblinear'
p14
sS'penalty'
p15
S'l1'
p16
sS'multi_class'
p17
S'ovr'
p18
sS'random_state'
p19
NsS'tol'
p20
F0.0001
sS'n_jobs'
p21
I1
sS'class_weight'
p22
Nsb.