ccopy_reg
_reconstructor
p0
(csklearn.linear_model.logistic
LogisticRegression
p1
c__builtin__
object
p2
Ntp3
Rp4
(dp5
S'warm_start'
p6
I00
sS'C'
p7
cnumpy.core.multiarray
scalar
p8
(cnumpy
dtype
p9
(S'f8'
p10
I0
I1
tp11
Rp12
(I3
S'<'
p13
NNNI-1
I-1
I0
tp14
bS'\x00\x00\x00\x00\x00\x00\xc0?'
p15
tp16
Rp17
sS'max_iter'
p18
I100
sS'verbose'
p19
I0
sS'intercept_scaling'
p20
I1
sS'dual'
p21
I00
sS'fit_intercept'
p22
I01
sS'classes_'
p23
cnumpy.core.multiarray
_reconstruct
p24
(cnumpy
ndarray
p25
(I0
tp26
S'b'
p27
tp28
Rp29
(I1
(I2
tp30
g12
I00
S'\x00\x00\x00\x00\x00\x00\x00\x00\x00\x00\x00\x00\x00\x00\xf0?'
p31
tp32
bsS'solver'
p33
S'liblinear'
p34
sS'n_iter_'
p35
g24
(g25
(I0
tp36
g27
tp37
Rp38
(I1
(I1
tp39
g9
(S'i4'
p40
I0
I1
tp41
Rp42
(I3
S'<'
p43
NNNI-1
I-1
I0
tp44
bI00
S'\x07\x00\x00\x00'
p45
tp46
bsS'penalty'
p47
S'l1'
p48
sS'multi_class'
p49
S'ovr'
p50
sS'random_state'
p51
NsS'tol'
p52
F0.01
sS'n_jobs'
p53
I1
sS'coef_'
p54
g24
(g25
(I0
tp55
g27
tp56
Rp57
(I1
(I1
I3
tp58
g12
I01
S'\x90\xb0\xec\x92 \xdd\x8e>\xbb\xd4\xfe\xa9\xd6\x91z>\xf3\x00w/\x9e w\xbe'
p59
tp60
bsS'intercept_'
p61
g24
(g25
(I0
tp62
g27
tp63
Rp64
(I1
(I1
tp65
g12
I00
S'\xc3\xa7b\xedA\x11\xfc\xbf'
p66
tp67
bsS'class_weight'
p68
Nsb.