(dp0
S'METTS MARK'
p1
(dp2
S'to_messages'
p3
I807
sS'deferral_payments'
p4
S'NaN'
p5
sS'expenses'
p6
I94299
sS'poi'
p7
I00
sS'long_term_incentive'
p8
g5
sS'email_address'
p9
S'mark.metts@enron.com'
p10
sS'from_poi_to_this_person'
p11
I38
sS'deferred_income'
p12
g5
sS'fraction_from_poi'
p13
F0.04708798017348203
sS'restricted_stock_deferred'
p14
g5
sS'shared_receipt_with_poi'
p15
I702
sS'loan_advances'
p16
g5
sS'from_messages'
p17
I29
sS'other'
p18
I1740
sS'director_fees'
p19
g5
sS'bonus'
p20
I600000
sS'total_stock_value'
p21
I585062
sS'from_this_person_to_poi'
p22
I1
sS'restricted_stock'
p23
I585062
sS'salary'
p24
I365788
sS'total_payments'
p25
I1061827
sS'fraction_to_poi'
p26
F0.034482758620689655
sS'exercised_stock_options'
p27
g5
ssS'BAXTER JOHN C'
p28
(dp29
g3
g5
sg4
I1295738
sg6
I11200
sg7
I00
sg8
I1586055
sg9
g5
sg11
g5
sg12
I-1386055
sg13
I0
sg14
g5
sg15
g5
sg16
g5
sg17
g5
sg18
I2660303
sg19
g5
sg20
I1200000
sg21
I10623258
sg22
g5
sg23
I3942714
sg24
I267102
sg25
I5634343
sg26
I0
sg27
I6680544
ssS'ELLIOTT STEVEN'
p30
(dp31
g3
g5
sg4
g5
sg6
I78552
sg7
I00
sg8
g5
sg9
S'steven.elliott@enron.com'
p32
sg11
g5
sg12
I-400729
sg13
I0
sg14
g5
sg15
g5
sg16
g5
sg17
g5
sg18
I12961
sg19
g5
sg20
I350000
sg21
I6678735
sg22
g5
sg23
I1788391
sg24
I170941
sg25
I211725
sg26
I0
sg27
I4890344
ssS'CORDES WILLIAM R'
p33
(dp34
g3
I764
sg4
g5
sg6
g5
sg7
I00
sg8
g5
sg9
S'bill.cordes@enron.com'
p35
sg11
I10
sg12
g5
sg13
F0.013089005235602094
sg14
g5
sg15
I58
sg16
g5
sg17
I12
sg18
g5
sg19
g5
sg20
g5
sg21
I1038185
sg22
I0
sg23
I386335
sg24
g5
sg25
g5
sg26
F0.0
sg27
I651850
ssS'HANNON KEVIN P'
p36
(dp37
g3
I1045
sg4
g5
sg6
I34039
sg7
I01
sg8
I1617011
sg9
S'kevin.hannon@enron.com'
p38
sg11
I32
sg12
I-3117011
sg13
F0.03062200956937799
sg14
g5
sg15
I1035
sg16
g5
sg17
I32
sg18
I11350
sg19
g5
sg20
I1500000
sg21
I6391065
sg22
I21
sg23
I853064
sg24
I243293
sg25
I288682
sg26
F0.65625
sg27
I5538001
ssS'MORDAUNT KRISTINA M'
p39
(dp40
g3
g5
sg4
g5
sg6
I35018
sg7
I00
sg8
g5
sg9
S'kristina.mordaunt@enron.com'
p41
sg11
g5
sg12
g5
sg13
I0
sg14
g5
sg15
g5
sg16
g5
sg17
g5
sg18
I1411
sg19
g5
sg20
I325000
sg21
I208510
sg22
g5
sg23
I208510
sg24
I267093
sg25
I628522
sg26
I0
sg27
g5
ssS'MEYER ROCKFORD G'
p42
(dp43
g3
I232
sg4
I1848227
sg6
g5
sg7
I00
sg8
g5
sg9
S'rockford.meyer@enron.com'
p44
sg11
I0
sg12
g5
sg13
F0.0
sg14
g5
sg15
I22
sg16
g5
sg17
I28
sg18
g5
sg19
g5
sg20
g5
sg21
I955873
sg22
I0
sg23
I462384
sg24
g5
sg25
I1848227
sg26
F0.0
sg27
I493489
ssS'MCMAHON JEFFREY'
p45
(dp46
g3
I2355
sg4
g5
sg6
I137108
sg7
I00
sg8
I694862
sg9
S'jeffrey.mcmahon@enron.com'
p47
sg11
I58
sg12
g5
sg13
F0.024628450106157114
sg14
g5
sg15
I2228
sg16
g5
sg17
I48
sg18
I297353
sg19
g5
sg20
I2600000
sg21
I1662855
sg22
I26
sg23
I558801
sg24
I370448
sg25
I4099771
sg26
F0.5416666666666666
sg27
I1104054
ssS'HAEDICKE MARK E'
p48
(dp49
g3
I4009
sg4
I2157527
sg6
I76169
sg7
I00
sg8
I983346
sg9
S'mark.haedicke@enron.com'
p50
sg11
I180
sg12
I-934484
sg13
F0.04489897730107259
sg14
I-329825
sg15
I1847
sg16
g5
sg17
I1941
sg18
I52382
sg19
g5
sg20
I1150000
sg21
I803094
sg22
I61
sg23
I524169
sg24
I374125
sg25
I3859065
sg26
F0.03142709943328181
sg27
I608750
ssS'PIPER GREGORY F'
p51
(dp52
g3
I1238
sg4
I1130036
sg6
I43057
sg7
I00
sg8
g5
sg9
S'greg.piper@enron.com'
p53
sg11
I61
sg12
I-33333
sg13
F0.049273021001615507
sg14
I-409554
sg15
I742
sg16
g5
sg17
I222
sg18
I778
sg19
g5
sg20
I400000
sg21
I880290
sg22
I48
sg23
I409554
sg24
I197091
sg25
I1737629
sg26
F0.21621621621621623
sg27
I880290
ssS'HUMPHREY GENE E'
p54
(dp55
g3
I128
sg4
I2964506
sg6
I4994
sg7
I00
sg8
g5
sg9
S'gene.humphrey@enron.com'
p56
sg11
I10
sg12
g5
sg13
F0.078125
sg14
g5
sg15
I119
sg16
g5
sg17
I17
sg18
g5
sg19
g5
sg20
g5
sg21
I2282768
sg22
I17
sg23
g5
sg24
I130724
sg25
I3100224
sg26
F1.0
sg27
I2282768
ssS'NOLES JAMES L'
p57
(dp58
g3
g5
sg4
I774401
sg6
g5
sg7
I00
sg8
g5
sg9
g5
sg11
g5
sg12
g5
sg13
I0
sg14
I-94556
sg15
g5
sg16
g5
sg17
g5
sg18
g5
sg19
g5
sg20
g5
sg21
I368705
sg22
g5
sg23
I463261
sg24
g5
sg25
I774401
sg26
I0
sg27
g5
ssS'BLACHMAN JEREMY M'
p59
(dp60
g3
I2475
sg4
g5
sg6
I84208
sg7
I00
sg8
I831809
sg9
S'jeremy.blachman@enron.com'
p61
sg11
I25
sg12
g5
sg13
F0.010101010101010102
sg14
g5
sg15
I2326
sg16
g5
sg17
I14
sg18
I272
sg19
g5
sg20
I850000
sg21
I954354
sg22
I2
sg23
I189041
sg24
I248546
sg25
I2014835
sg26
F0.14285714285714285
sg27
I765313
ssS'SUNDE MARTIN'
p62
(dp63
g3
I2647
sg4
g5
sg6
g5
sg7
I00
sg8
I476451
sg9
S'marty.sunde@enron.com'
p64
sg11
I37
sg12
g5
sg13
F0.013978088401964487
sg14
g5
sg15
I2565
sg16
g5
sg17
I38
sg18
I111122
sg19
g5
sg20
I700000
sg21
I698920
sg22
I13
sg23
I698920
sg24
I257486
sg25
I1545059
sg26
F0.34210526315789475
sg27
g5
ssS'GIBBS DANA R'
p65
(dp66
g3
I169
sg4
I504610
sg6
g5
sg7
I00
sg8
I461912
sg9
S'dana.gibbs@enron.com'
p67
sg11
I0
sg12
g5
sg13
F0.0
sg14
g5
sg15
I23
sg16
g5
sg17
I12
sg18
g5
sg19
g5
sg20
g5
sg21
I2218275
sg22
I0
sg23
g5
sg24
g5
sg25
I966522
sg26
F0.0
sg27
I2218275
ssS'LOWRY CHARLES P'
p68
(dp69
g3
g5
sg4
g5
sg6
g5
sg7
I00
sg8
g5
sg9
g5
sg11
g5
sg12
g5
sg13
I0
sg14
I-153686
sg15
g5
sg16
g5
sg17
g5
sg18
g5
sg19
g5
sg20
g5
sg21
I372205
sg22
g5
sg23
I153686
sg24
g5
sg25
g5
sg26
I0
sg27
I372205
ssS'COLWELL WESLEY'
p70
(dp71
g3
I1758
sg4
I27610
sg6
I16514
sg7
I01
sg8
g5
sg9
S'wes.colwell@enron.com'
p72
sg11
I240
sg12
I-144062
sg13
F0.13651877133105803
sg14
g5
sg15
I1132
sg16
g5
sg17
I40
sg18
I101740
sg19
g5
sg20
I1200000
sg21
I698242
sg22
I11
sg23
I698242
sg24
I288542
sg25
I1490344
sg26
F0.275
sg27
g5
ssS'MULLER MARK S'
p73
(dp74
g3
I136
sg4
I842924
sg6
g5
sg7
I00
sg8
I1725545
sg9
S's..muller@enron.com'
p75
sg11
I12
sg12
I-719000
sg13
F0.08823529411764706
sg14
g5
sg15
I114
sg16
g5
sg17
I16
sg18
I947
sg19
g5
sg20
I1100000
sg21
I1416848
sg22
I0
sg23
I360528
sg24
I251654
sg25
I3202070
sg26
F0.0
sg27
I1056320
ssS'JACKSON CHARLENE R'
p76
(dp77
g3
I258
sg4
g5
sg6
I10181
sg7
I00
sg8
g5
sg9
S'charlene.jackson@enron.com'
p78
sg11
I25
sg12
g5
sg13
F0.09689922480620156
sg14
g5
sg15
I117
sg16
g5
sg17
I56
sg18
I2435
sg19
g5
sg20
I250000
sg21
I725735
sg22
I19
sg23
I540672
sg24
I288558
sg25
I551174
sg26
F0.3392857142857143
sg27
I185063
ssS'WESTFAHL RICHARD K'
p79
(dp80
g3
g5
sg4
g5
sg6
I51870
sg7
I00
sg8
I256191
sg9
S'dick.westfahl@enron.com'
p81
sg11
g5
sg12
I-10800
sg13
I0
sg14
g5
sg15
g5
sg16
g5
sg17
g5
sg18
I401130
sg19
g5
sg20
g5
sg21
I384930
sg22
g5
sg23
I384930
sg24
I63744
sg25
I762135
sg26
I0
sg27
g5
ssS'WALTERS GARETH W'
p82
(dp83
g3
g5
sg4
I53625
sg6
I33785
sg7
I00
sg8
g5
sg9
g5
sg11
g5
sg12
g5
sg13
I0
sg14
g5
sg15
g5
sg16
g5
sg17
g5
sg18
g5
sg19
g5
sg20
g5
sg21
I1030329
sg22
g5
sg23
g5
sg24
g5
sg25
I87410
sg26
I0
sg27
I1030329
ssS'WALLS JR ROBERT H'
p84
(dp85
g3
I671
sg4
g5
sg6
I50936
sg7
I00
sg8
I540751
sg9
S'rob.walls@enron.com'
p86
sg11
I17
sg12
g5
sg13
F0.02533532041728763
sg14
g5
sg15
I215
sg16
g5
sg17
I146
sg18
I2
sg19
g5
sg20
I850000
sg21
I5898997
sg22
I0
sg23
I1552453
sg24
I357091
sg25
I1798780
sg26
F0.0
sg27
I4346544
ssS'KITCHEN LOUISE'
p87
(dp88
g3
I8305
sg4
g5
sg6
I5774
sg7
I00
sg8
g5
sg9
S'louise.kitchen@enron.com'
p89
sg11
I251
sg12
g5
sg13
F0.030222757375075255
sg14
g5
sg15
I3669
sg16
g5
sg17
I1728
sg18
I93925
sg19
g5
sg20
I3100000
sg21
I547143
sg22
I194
sg23
I466101
sg24
I271442
sg25
I3471141
sg26
F0.11226851851851852
sg27
I81042
ssS'CHAN RONNIE'
p90
(dp91
g3
g5
sg4
g5
sg6
g5
sg7
I00
sg8
g5
sg9
g5
sg11
g5
sg12
I-98784
sg13
I0
sg14
I-32460
sg15
g5
sg16
g5
sg17
g5
sg18
g5
sg19
I98784
sg20
g5
sg21
g5
sg22
g5
sg23
I32460
sg24
g5
sg25
g5
sg26
I0
sg27
g5
ssS'BELFER ROBERT'
p92
(dp93
g3
g5
sg4
I-102500
sg6
g5
sg7
I00
sg8
g5
sg9
g5
sg11
g5
sg12
g5
sg13
I0
sg14
I44093
sg15
g5
sg16
g5
sg17
g5
sg18
g5
sg19
I3285
sg20
g5
sg21
I-44093
sg22
g5
sg23
g5
sg24
g5
sg25
I102500
sg26
I0
sg27
I3285
ssS'SHANKMAN JEFFREY A'
p94
(dp95
g3
I3221
sg4
g5
sg6
I178979
sg7
I00
sg8
I554422
sg9
S'jeffrey.shankman@enron.com'
p96
sg11
I94
sg12
g5
sg13
F0.029183483390251473
sg14
g5
sg15
I1730
sg16
g5
sg17
I2681
sg18
I1191
sg19
g5
sg20
I2000000
sg21
I2072035
sg22
I83
sg23
I630137
sg24
I304110
sg25
I3038702
sg26
F0.030958597538232
sg27
I1441898
ssS'WODRASKA JOHN'
p97
(dp98
g3
g5
sg4
g5
sg6
g5
sg7
I00
sg8
g5
sg9
S'john.wodraska@enron.com'
p99
sg11
g5
sg12
g5
sg13
I0
sg14
g5
sg15
g5
sg16
g5
sg17
g5
sg18
I189583
sg19
g5
sg20
g5
sg21
g5
sg22
g5
sg23
g5
sg24
g5
sg25
I189583
sg26
I0
sg27
g5
ssS'BERGSIEKER RICHARD P'
p100
(dp101
g3
I383
sg4
g5
sg6
I59175
sg7
I00
sg8
I180250
sg9
S'rick.bergsieker@enron.com'
p102
sg11
I4
sg12
I-485813
sg13
F0.010443864229765013
sg14
g5
sg15
I233
sg16
g5
sg17
I59
sg18
I427316
sg19
g5
sg20
I250000
sg21
I659249
sg22
I0
sg23
I659249
sg24
I187922
sg25
I618850
sg26
F0.0
sg27
g5
ssS'URQUHART JOHN A'
p103
(dp104
g3
g5
sg4
g5
sg6
I228656
sg7
I00
sg8
g5
sg9
g5
sg11
g5
sg12
I-36666
sg13
I0
sg14
g5
sg15
g5
sg16
g5
sg17
g5
sg18
g5
sg19
I36666
sg20
g5
sg21
g5
sg22
g5
sg23
g5
sg24
g5
sg25
I228656
sg26
I0
sg27
g5
ssS'BIBI PHILIPPE A'
p105
(dp106
g3
I1607
sg4
g5
sg6
I38559
sg7
I00
sg8
I369721
sg9
S'philippe.bibi@enron.com'
p107
sg11
I23
sg12
g5
sg13
F0.01431238332296204
sg14
g5
sg15
I1336
sg16
g5
sg17
I40
sg18
I425688
sg19
g5
sg20
I1000000
sg21
I1843816
sg22
I8
sg23
I378082
sg24
I213625
sg25
I2047593
sg26
F0.2
sg27
I1465734
ssS'RIEKER PAULA H'
p108
(dp109
g3
I1328
sg4
I214678
sg6
I33271
sg7
I01
sg8
g5
sg9
S'paula.rieker@enron.com'
p110
sg11
I35
sg12
I-100000
sg13
F0.02635542168674699
sg14
g5
sg15
I1258
sg16
g5
sg17
I82
sg18
I1950
sg19
g5
sg20
I700000
sg21
I1918887
sg22
I48
sg23
I283649
sg24
I249201
sg25
I1099100
sg26
F0.5853658536585366
sg27
I1635238
ssS'WHALEY DAVID A'
p111
(dp112
g3
g5
sg4
g5
sg6
g5
sg7
I00
sg8
g5
sg9
g5
sg11
g5
sg12
g5
sg13
I0
sg14
g5
sg15
g5
sg16
g5
sg17
g5
sg18
g5
sg19
g5
sg20
g5
sg21
I98718
sg22
g5
sg23
g5
sg24
g5
sg25
g5
sg26
I0
sg27
I98718
ssS'BECK SALLY W'
p113
(dp114
g3
I7315
sg4
g5
sg6
I37172
sg7
I00
sg8
g5
sg9
S'sally.beck@enron.com'
p115
sg11
I144
sg12
g5
sg13
F0.01968557758031442
sg14
g5
sg15
I2639
sg16
g5
sg17
I4343
sg18
I566
sg19
g5
sg20
I700000
sg21
I126027
sg22
I386
sg23
I126027
sg24
I231330
sg25
I969068
sg26
F0.08887865530739121
sg27
g5
ssS'HAUG DAVID L'
p116
(dp117
g3
I573
sg4
g5
sg6
I475
sg7
I00
sg8
g5
sg9
S'david.haug@enron.com'
p118
sg11
I4
sg12
g5
sg13
F0.006980802792321117
sg14
g5
sg15
I471
sg16
g5
sg17
I19
sg18
g5
sg19
g5
sg20
g5
sg21
I2217299
sg22
I7
sg23
I2217299
sg24
g5
sg25
I475
sg26
F0.3684210526315789
sg27
g5
ssS'ECHOLS JOHN B'
p119
(dp120
g3
g5
sg4
g5
sg6
I21530
sg7
I00
sg8
I2234774
sg9
S'john.echols@enron.com'
p121
sg11
g5
sg12
g5
sg13
I0
sg14
g5
sg15
g5
sg16
g5
sg17
g5
sg18
I53775
sg19
g5
sg20
I200000
sg21
I1008941
sg22
g5
sg23
I407503
sg24
I182245
sg25
I2692324
sg26
I0
sg27
I601438
ssS'MENDELSOHN JOHN'
p122
(dp123
g3
g5
sg4
g5
sg6
I148
sg7
I00
sg8
g5
sg9
g5
sg11
g5
sg12
I-103750
sg13
I0
sg14
g5
sg15
g5
sg16
g5
sg17
g5
sg18
g5
sg19
I103750
sg20
g5
sg21
g5
sg22
g5
sg23
g5
sg24
g5
sg25
I148
sg26
I0
sg27
g5
ssS'HICKERSON GARY J'
p124
(dp125
g3
I1320
sg4
g5
sg6
I98849
sg7
I00
sg8
I69223
sg9
S'gary.hickerson@enron.com'
p126
sg11
I40
sg12
g5
sg13
F0.030303030303030304
sg14
g5
sg15
I900
sg16
g5
sg17
I27
sg18
I1936
sg19
g5
sg20
I1700000
sg21
I441096
sg22
I1
sg23
I441096
sg24
I211788
sg25
I2081796
sg26
F0.037037037037037035
sg27
g5
ssS'CLINE KENNETH W'
p127
(dp128
g3
g5
sg4
g5
sg6
g5
sg7
I00
sg8
g5
sg9
g5
sg11
g5
sg12
g5
sg13
I0
sg14
I-472568
sg15
g5
sg16
g5
sg17
g5
sg18
g5
sg19
g5
sg20
g5
sg21
I189518
sg22
g5
sg23
I662086
sg24
g5
sg25
g5
sg26
I0
sg27
g5
ssS'LEWIS RICHARD'
p129
(dp130
g3
I952
sg4
g5
sg6
g5
sg7
I00
sg8
g5
sg9
S'richard.lewis@enron.com'
p131
sg11
I10
sg12
g5
sg13
F0.01050420168067227
sg14
g5
sg15
I739
sg16
g5
sg17
I26
sg18
g5
sg19
g5
sg20
g5
sg21
I850477
sg22
I0
sg23
g5
sg24
g5
sg25
g5
sg26
F0.0
sg27
I850477
ssS'HAYES ROBERT E'
p132
(dp133
g3
I504
sg4
I7961
sg6
g5
sg7
I00
sg8
g5
sg9
S'robert.hayes@enron.com'
p134
sg11
I16
sg12
g5
sg13
F0.031746031746031744
sg14
g5
sg15
I50
sg16
g5
sg17
I12
sg18
g5
sg19
g5
sg20
g5
sg21
I151418
sg22
I0
sg23
I151418
sg24
g5
sg25
I7961
sg26
F0.0
sg27
g5
ssS'KOPPER MICHAEL J'
p135
(dp136
g3
g5
sg4
g5
sg6
I118134
sg7
I01
sg8
I602671
sg9
S'michael.kopper@enron.com'
p137
sg11
g5
sg12
g5
sg13
I0
sg14
g5
sg15
g5
sg16
g5
sg17
g5
sg18
I907502
sg19
g5
sg20
I800000
sg21
I985032
sg22
g5
sg23
I985032
sg24
I224305
sg25
I2652612
sg26
I0
sg27
g5
ssS'LEFF DANIEL P'
p138
(dp139
g3
I2822
sg4
g5
sg6
g5
sg7
I00
sg8
I1387399
sg9
S'dan.leff@enron.com'
p140
sg11
I67
sg12
g5
sg13
F0.02374202693125443
sg14
g5
sg15
I2672
sg16
g5
sg17
I63
sg18
I3083
sg19
g5
sg20
I1000000
sg21
I360528
sg22
I14
sg23
I360528
sg24
I273746
sg25
I2664228
sg26
F0.2222222222222222
sg27
g5
ssS'LAVORATO JOHN J'
p141
(dp142
g3
I7259
sg4
g5
sg6
I49537
sg7
I00
sg8
I2035380
sg9
S'john.lavorato@enron.com'
p143
sg11
I528
sg12
g5
sg13
F0.07273729163796666
sg14
g5
sg15
I3962
sg16
g5
sg17
I2585
sg18
I1552
sg19
g5
sg20
I8000000
sg21
I5167144
sg22
I411
sg23
I1008149
sg24
I339288
sg25
I10425757
sg26
F0.15899419729206962
sg27
I4158995
ssS'BERBERIAN DAVID'
p144
(dp145
g3
g5
sg4
g5
sg6
I11892
sg7
I00
sg8
g5
sg9
S'david.berberian@enron.com'
p146
sg11
g5
sg12
g5
sg13
I0
sg14
g5
sg15
g5
sg16
g5
sg17
g5
sg18
g5
sg19
g5
sg20
g5
sg21
I2493616
sg22
g5
sg23
I869220
sg24
I216582
sg25
I228474
sg26
I0
sg27
I1624396
ssS'DETMERING TIMOTHY J'
p147
(dp148
g3
g5
sg4
I875307
sg6
I52255
sg7
I00
sg8
I415657
sg9
S'timothy.detmering@enron.com'
p149
sg11
g5
sg12
I-775241
sg13
I0
sg14
I-315068
sg15
g5
sg16
g5
sg17
g5
sg18
I1105
sg19
g5
sg20
I425000
sg21
I2027865
sg22
g5
sg23
I315068
sg24
I210500
sg25
I1204583
sg26
I0
sg27
I2027865
ssS'WAKEHAM JOHN'
p150
(dp151
g3
g5
sg4
g5
sg6
I103773
sg7
I00
sg8
g5
sg9
g5
sg11
g5
sg12
g5
sg13
I0
sg14
g5
sg15
g5
sg16
g5
sg17
g5
sg18
g5
sg19
I109298
sg20
g5
sg21
g5
sg22
g5
sg23
g5
sg24
g5
sg25
I213071
sg26
I0
sg27
g5
ssS'POWERS WILLIAM'
p152
(dp153
g3
I653
sg4
g5
sg6
g5
sg7
I00
sg8
g5
sg9
S'ken.powers@enron.com'
p154
sg11
I0
sg12
I-17500
sg13
F0.0
sg14
g5
sg15
I12
sg16
g5
sg17
I26
sg18
g5
sg19
I17500
sg20
g5
sg21
g5
sg22
I0
sg23
g5
sg24
g5
sg25
g5
sg26
F0.0
sg27
g5
ssS'GOLD JOSEPH'
p155
(dp156
g3
g5
sg4
g5
sg6
g5
sg7
I00
sg8
I304805
sg9
S'joe.gold@enron.com'
p157
sg11
g5
sg12
g5
sg13
I0
sg14
g5
sg15
g5
sg16
g5
sg17
g5
sg18
I819288
sg19
g5
sg20
I750000
sg21
I877611
sg22
g5
sg23
I441096
sg24
I272880
sg25
I2146973
sg26
I0
sg27
I436515
ssS'BANNANTINE JAMES M'
p158
(dp159
g3
I566
sg4
g5
sg6
I56301
sg7
I00
sg8
g5
sg9
S'james.bannantine@enron.com'
p160
sg11
I39
sg12
I-5104
sg13
F0.06890459363957598
sg14
I-560222
sg15
I465
sg16
g5
sg17
I29
sg18
I864523
sg19
g5
sg20
g5
sg21
I5243487
sg22
I0
sg23
I1757552
sg24
I477
sg25
I916197
sg26
F0.0
sg27
I4046157
ssS'DUNCAN JOHN H'
p161
(dp162
g3
g5
sg4
g5
sg6
g5
sg7
I00
sg8
g5
sg9
g5
sg11
g5
sg12
I-25000
sg13
I0
sg14
g5
sg15
g5
sg16
g5
sg17
g5
sg18
g5
sg19
I102492
sg20
g5
sg21
I371750
sg22
g5
sg23
g5
sg24
g5
sg25
I77492
sg26
I0
sg27
I371750
ssS'SHAPIRO RICHARD S'
p163
(dp164
g3
I15149
sg4
g5
sg6
I137767
sg7
I00
sg8
g5
sg9
S'richard.shapiro@enron.com'
p165
sg11
I74
sg12
g5
sg13
F0.0048848108786058485
sg14
g5
sg15
I4527
sg16
g5
sg17
I1215
sg18
I705
sg19
g5
sg20
I650000
sg21
I987001
sg22
I65
sg23
I379164
sg24
I269076
sg25
I1057548
sg26
F0.053497942386831275
sg27
I607837
ssS'SHERRIFF JOHN R'
p166
(dp167
g3
I3187
sg4
g5
sg6
g5
sg7
I00
sg8
I554422
sg9
S'john.sherriff@enron.com'
p168
sg11
I28
sg12
g5
sg13
F0.008785691873235017
sg14
g5
sg15
I2103
sg16
g5
sg17
I92
sg18
I1852186
sg19
g5
sg20
I1500000
sg21
I3128982
sg22
I23
sg23
I1293424
sg24
I428780
sg25
I4335388
sg26
F0.25
sg27
I1835558
ssS'SHELBY REX'
p169
(dp170
g3
I225
sg4
g5
sg6
I22884
sg7
I01
sg8
g5
sg9
S'rex.shelby@enron.com'
p171
sg11
I13
sg12
I-4167
sg13
F0.057777777777777775
sg14
g5
sg15
I91
sg16
g5
sg17
I39
sg18
I1573324
sg19
g5
sg20
I200000
sg21
I2493616
sg22
I14
sg23
I869220
sg24
I211844
sg25
I2003885
sg26
F0.358974358974359
sg27
I1624396
ssS'LEMAISTRE CHARLES'
p172
(dp173
g3
g5
sg4
g5
sg6
g5
sg7
I00
sg8
g5
sg9
g5
sg11
g5
sg12
I-25000
sg13
I0
sg14
g5
sg15
g5
sg16
g5
sg17
g5
sg18
g5
sg19
I112492
sg20
g5
sg21
I412878
sg22
g5
sg23
g5
sg24
g5
sg25
I87492
sg26
I0
sg27
I412878
ssS'DEFFNER JOSEPH M'
p174
(dp175
g3
I714
sg4
g5
sg6
I41626
sg7
I00
sg8
I335349
sg9
S'joseph.deffner@enron.com'
p176
sg11
I115
sg12
g5
sg13
F0.16106442577030813
sg14
g5
sg15
I552
sg16
g5
sg17
I74
sg18
I25553
sg19
g5
sg20
I600000
sg21
I159211
sg22
I4
sg23
I141833
sg24
I206121
sg25
I1208649
sg26
F0.05405405405405406
sg27
I17378
ssS'KISHKILL JOSEPH G'
p177
(dp178
g3
g5
sg4
g5
sg6
I116335
sg7
I00
sg8
g5
sg9
S'joe.kishkill@enron.com'
p179
sg11
g5
sg12
I-51042
sg13
I0
sg14
g5
sg15
g5
sg16
g5
sg17
g5
sg18
I465357
sg19
g5
sg20
g5
sg21
I1034346
sg22
g5
sg23
I1034346
sg24
I174246
sg25
I704896
sg26
I0
sg27
g5
ssS'WHALLEY LAWRENCE G'
p180
(dp181
g3
I6019
sg4
g5
sg6
I57838
sg7
I00
sg8
I808346
sg9
S'greg.whalley@enron.com'
p182
sg11
I186
sg12
g5
sg13
F0.03090214321315833
sg14
g5
sg15
I3920
sg16
g5
sg17
I556
sg18
I301026
sg19
g5
sg20
I3000000
sg21
I6079137
sg22
I24
sg23
I2796177
sg24
I510364
sg25
I4677574
sg26
F0.04316546762589928
sg27
I3282960
ssS'PIRO JIM'
p183
(dp184
g3
I58
sg4
g5
sg6
g5
sg7
I00
sg8
g5
sg9
S'jim.piro@enron.com'
p185
sg11
I0
sg12
g5
sg13
F0.0
sg14
g5
sg15
I3
sg16
g5
sg17
I16
sg18
g5
sg19
g5
sg20
g5
sg21
I47304
sg22
I1
sg23
I47304
sg24
g5
sg25
g5
sg26
F0.0625
sg27
g5
ssS'MCCONNELL MICHAEL S'
p186
(dp187
g3
I3329
sg4
g5
sg6
I81364
sg7
I00
sg8
I554422
sg9
S'mike.mcconnell@enron.com'
p188
sg11
I92
sg12
g5
sg13
F0.02763592670471613
sg14
g5
sg15
I2189
sg16
g5
sg17
I2742
sg18
I540
sg19
g5
sg20
I1100000
sg21
I3101279
sg22
I194
sg23
I1478269
sg24
I365038
sg25
I2101364
sg26
F0.07075127644055434
sg27
I1623010
ssS'DELAINEY DAVID W'
p189
(dp190
g3
I3093
sg4
g5
sg6
I86174
sg7
I01
sg8
I1294981
sg9
S'david.delainey@enron.com'
p191
sg11
I66
sg12
g5
sg13
F0.02133850630455868
sg14
g5
sg15
I2097
sg16
g5
sg17
I3069
sg18
I1661
sg19
g5
sg20
I3000000
sg21
I3614261
sg22
I609
sg23
I1323148
sg24
I365163
sg25
I4747979
sg26
F0.198435972629521
sg27
I2291113
ssS'SULLIVAN-SHAKLOVITZ COLLEEN'
p192
(dp193
g3
g5
sg4
I181993
sg6
g5
sg7
I00
sg8
I554422
sg9
g5
sg11
g5
sg12
g5
sg13
I0
sg14
g5
sg15
g5
sg16
g5
sg17
g5
sg18
I162
sg19
g5
sg20
I100000
sg21
I1362375
sg22
g5
sg23
g5
sg24
I162779
sg25
I999356
sg26
I0
sg27
I1362375
ssS'WROBEL BRUCE'
p194
(dp195
g3
g5
sg4
g5
sg6
g5
sg7
I00
sg8
g5
sg9
g5
sg11
g5
sg12
g5
sg13
I0
sg14
g5
sg15
g5
sg16
g5
sg17
g5
sg18
g5
sg19
g5
sg20
g5
sg21
I139130
sg22
g5
sg23
g5
sg24
g5
sg25
g5
sg26
I0
sg27
I139130
ssS'LINDHOLM TOD A'
p196
(dp197
g3
g5
sg4
I204075
sg6
I57727
sg7
I00
sg8
I175000
sg9
S'tod.lindholm@enron.com'
p198
sg11
g5
sg12
g5
sg13
I0
sg14
g5
sg15
g5
sg16
g5
sg17
g5
sg18
I2630
sg19
g5
sg20
I200000
sg21
I3064208
sg22
g5
sg23
I514847
sg24
I236457
sg25
I875889
sg26
I0
sg27
I2549361
ssS'MEYER JEROME J'
p199
(dp200
g3
g5
sg4
g5
sg6
I2151
sg7
I00
sg8
g5
sg9
g5
sg11
g5
sg12
I-38346
sg13
I0
sg14
g5
sg15
g5
sg16
g5
sg17
g5
sg18
g5
sg19
I38346
sg20
g5
sg21
g5
sg22
g5
sg23
g5
sg24
g5
sg25
I2151
sg26
I0
sg27
g5
ssS'LAY KENNETH L'
p201
(dp202
g3
I4273
sg4
I202911
sg6
I99832
sg7
I01
sg8
I3600000
sg9
S'kenneth.lay@enron.com'
p203
sg11
I123
sg12
I-300000
sg13
F0.028785396676807865
sg14
g5
sg15
I2411
sg16
I81525000
sg17
I36
sg18
I10359729
sg19
g5
sg20
I7000000
sg21
I49110078
sg22
I16
sg23
I14761694
sg24
I1072321
sg25
I103559793
sg26
F0.4444444444444444
sg27
I34348384
ssS'BUTTS ROBERT H'
p204
(dp205
g3
g5
sg4
g5
sg6
I9410
sg7
I00
sg8
I175000
sg9
S'bob.butts@enron.com'
p206
sg11
g5
sg12
I-75000
sg13
I0
sg14
g5
sg15
g5
sg16
g5
sg17
g5
sg18
I150656
sg19
g5
sg20
I750000
sg21
I417619
sg22
g5
sg23
I417619
sg24
I261516
sg25
I1271582
sg26
I0
sg27
g5
ssS'OLSON CINDY K'
p207
(dp208
g3
I1184
sg4
I77716
sg6
I63791
sg7
I00
sg8
I100000
sg9
S'cindy.olson@enron.com'
p209
sg11
I20
sg12
g5
sg13
F0.016891891891891893
sg14
g5
sg15
I856
sg16
g5
sg17
I52
sg18
I972
sg19
g5
sg20
I750000
sg21
I2606763
sg22
I15
sg23
I969729
sg24
I329078
sg25
I1321557
sg26
F0.28846153846153844
sg27
I1637034
ssS'MCDONALD REBECCA'
p210
(dp211
g3
I894
sg4
g5
sg6
g5
sg7
I00
sg8
g5
sg9
S'rebecca.mcdonald@enron.com'
p212
sg11
I54
sg12
g5
sg13
F0.06040268456375839
sg14
g5
sg15
I720
sg16
g5
sg17
I13
sg18
g5
sg19
g5
sg20
g5
sg21
I1691366
sg22
I1
sg23
I934065
sg24
g5
sg25
g5
sg26
F0.07692307692307693
sg27
I757301
ssS'CUMBERLAND MICHAEL S'
p213
(dp214
g3
g5
sg4
g5
sg6
I22344
sg7
I00
sg8
I275000
sg9
g5
sg11
g5
sg12
g5
sg13
I0
sg14
g5
sg15
g5
sg16
g5
sg17
g5
sg18
I713
sg19
g5
sg20
I325000
sg21
I207940
sg22
g5
sg23
I207940
sg24
I184899
sg25
I807956
sg26
I0
sg27
g5
ssS'GAHN ROBERT S'
p215
(dp216
g3
g5
sg4
I73122
sg6
I50080
sg7
I00
sg8
g5
sg9
g5
sg11
g5
sg12
I-1042
sg13
I0
sg14
g5
sg15
g5
sg16
g5
sg17
g5
sg18
I76547
sg19
g5
sg20
I509870
sg21
I318607
sg22
g5
sg23
I235370
sg24
I192008
sg25
I900585
sg26
I0
sg27
I83237
ssS'BADUM JAMES P'
p217
(dp218
g3
g5
sg4
I178980
sg6
I3486
sg7
I00
sg8
g5
sg9
g5
sg11
g5
sg12
g5
sg13
I0
sg14
g5
sg15
g5
sg16
g5
sg17
g5
sg18
g5
sg19
g5
sg20
g5
sg21
I257817
sg22
g5
sg23
g5
sg24
g5
sg25
I182466
sg26
I0
sg27
I257817
ssS'HERMANN ROBERT J'
p219
(dp220
g3
g5
sg4
g5
sg6
I48357
sg7
I00
sg8
I150000
sg9
S'robert.hermann@enron.com'
p221
sg11
g5
sg12
I-280000
sg13
I0
sg14
g5
sg15
g5
sg16
g5
sg17
g5
sg18
I416441
sg19
g5
sg20
I700000
sg21
I668132
sg22
g5
sg23
I480632
sg24
I262663
sg25
I1297461
sg26
I0
sg27
I187500
ssS'FALLON JAMES B'
p222
(dp223
g3
I1755
sg4
g5
sg6
I95924
sg7
I00
sg8
I374347
sg9
S'jim.fallon@enron.com'
p224
sg11
I42
sg12
g5
sg13
F0.023931623931623933
sg14
g5
sg15
I1604
sg16
g5
sg17
I75
sg18
I401481
sg19
g5
sg20
I2500000
sg21
I2332399
sg22
I37
sg23
I1392142
sg24
I304588
sg25
I3676340
sg26
F0.49333333333333335
sg27
I940257
ssS'GATHMANN WILLIAM D'
p225
(dp226
g3
g5
sg4
g5
sg6
g5
sg7
I00
sg8
g5
sg9
g5
sg11
g5
sg12
g5
sg13
I0
sg14
I-72419
sg15
g5
sg16
g5
sg17
g5
sg18
g5
sg19
g5
sg20
g5
sg21
I1945360
sg22
g5
sg23
I264013
sg24
g5
sg25
g5
sg26
I0
sg27
I1753766
ssS'HORTON STANLEY C'
p227
(dp228
g3
I2350
sg4
I3131860
sg6
g5
sg7
I00
sg8
g5
sg9
S'stanley.horton@enron.com'
p229
sg11
I44
sg12
g5
sg13
F0.01872340425531915
sg14
g5
sg15
I1074
sg16
g5
sg17
I1073
sg18
g5
sg19
g5
sg20
g5
sg21
I7256648
sg22
I15
sg23
I2046079
sg24
g5
sg25
I3131860
sg26
F0.013979496738117428
sg27
I5210569
ssS'BOWEN JR RAYMOND M'
p230
(dp231
g3
I1858
sg4
g5
sg6
I65907
sg7
I01
sg8
I974293
sg9
S'raymond.bowen@enron.com'
p232
sg11
I140
sg12
I-833
sg13
F0.07534983853606028
sg14
g5
sg15
I1593
sg16
g5
sg17
I27
sg18
I1621
sg19
g5
sg20
I1350000
sg21
I252055
sg22
I15
sg23
I252055
sg24
I278601
sg25
I2669589
sg26
F0.5555555555555556
sg27
g5
ssS'GILLIS JOHN'
p233
(dp234
g3
g5
sg4
g5
sg6
g5
sg7
I00
sg8
g5
sg9
g5
sg11
g5
sg12
g5
sg13
I0
sg14
g5
sg15
g5
sg16
g5
sg17
g5
sg18
g5
sg19
g5
sg20
g5
sg21
I85641
sg22
g5
sg23
I75838
sg24
g5
sg25
g5
sg26
I0
sg27
I9803
ssS'FITZGERALD JAY L'
p235
(dp236
g3
I936
sg4
g5
sg6
I23870
sg7
I00
sg8
I556416
sg9
S'jay.fitzgerald@enron.com'
p237
sg11
I1
sg12
g5
sg13
F0.0010683760683760685
sg14
g5
sg15
I723
sg16
g5
sg17
I16
sg18
I285414
sg19
g5
sg20
I350000
sg21
I1621236
sg22
I8
sg23
I956775
sg24
I199157
sg25
I1414857
sg26
F0.5
sg27
I664461
ssS'MORAN MICHAEL P'
p238
(dp239
g3
I672
sg4
g5
sg6
g5
sg7
I00
sg8
g5
sg9
S'michael.moran@enron.com'
p240
sg11
I0
sg12
g5
sg13
F0.0
sg14
g5
sg15
I127
sg16
g5
sg17
I19
sg18
g5
sg19
g5
sg20
g5
sg21
I221141
sg22
I0
sg23
I161602
sg24
g5
sg25
g5
sg26
F0.0
sg27
I59539
ssS'REDMOND BRIAN L'
p241
(dp242
g3
I1671
sg4
g5
sg6
I14689
sg7
I00
sg8
g5
sg9
S'brian.redmond@enron.com'
p243
sg11
I204
sg12
g5
sg13
F0.12208258527827648
sg14
g5
sg15
I1063
sg16
g5
sg17
I221
sg18
g5
sg19
g5
sg20
g5
sg21
I7890324
sg22
I49
sg23
I381285
sg24
I96840
sg25
I111529
sg26
F0.22171945701357465
sg27
I7509039
ssS'BAZELIDES PHILIP J'
p244
(dp245
g3
g5
sg4
I684694
sg6
g5
sg7
I00
sg8
I93750
sg9
g5
sg11
g5
sg12
g5
sg13
I0
sg14
g5
sg15
g5
sg16
g5
sg17
g5
sg18
I874
sg19
g5
sg20
g5
sg21
I1599641
sg22
g5
sg23
g5
sg24
I80818
sg25
I860136
sg26
I0
sg27
I1599641
ssS'BELDEN TIMOTHY N'
p246
(dp247
g3
I7991
sg4
I2144013
sg6
I17355
sg7
I01
sg8
g5
sg9
S'tim.belden@enron.com'
p248
sg11
I228
sg12
I-2334434
sg13
F0.028532098610937303
sg14
g5
sg15
I5521
sg16
g5
sg17
I484
sg18
I210698
sg19
g5
sg20
I5249999
sg21
I1110705
sg22
I108
sg23
I157569
sg24
I213999
sg25
I5501630
sg26
F0.2231404958677686
sg27
I953136
ssS'DIMICHELE RICHARD G'
p249
(dp250
g3
g5
sg4
g5
sg6
I35812
sg7
I00
sg8
I694862
sg9
S'richard.dimichele@enron.com'
p251
sg11
g5
sg12
g5
sg13
I0
sg14
g5
sg15
g5
sg16
g5
sg17
g5
sg18
I374689
sg19
g5
sg20
I1000000
sg21
I8317782
sg22
g5
sg23
I126027
sg24
I262788
sg25
I2368151
sg26
I0
sg27
I8191755
ssS'DURAN WILLIAM D'
p252
(dp253
g3
I904
sg4
g5
sg6
I25785
sg7
I00
sg8
I1105218
sg9
S'w.duran@enron.com'
p254
sg11
I106
sg12
g5
sg13
F0.1172566371681416
sg14
g5
sg15
I599
sg16
g5
sg17
I12
sg18
I1568
sg19
g5
sg20
I750000
sg21
I1640910
sg22
I3
sg23
I189041
sg24
I210692
sg25
I2093263
sg26
F0.25
sg27
I1451869
ssS'THORN TERENCE H'
p255
(dp256
g3
I266
sg4
I16586
sg6
I46145
sg7
I00
sg8
I200000
sg9
S'terence.thorn@enron.com'
p257
sg11
I0
sg12
g5
sg13
F0.0
sg14
g5
sg15
I73
sg16
g5
sg17
I41
sg18
I426629
sg19
g5
sg20
g5
sg21
I4817796
sg22
I0
sg23
I365320
sg24
I222093
sg25
I911453
sg26
F0.0
sg27
I4452476
ssS'FASTOW ANDREW S'
p258
(dp259
g3
g5
sg4
g5
sg6
I55921
sg7
I01
sg8
I1736055
sg9
S'andrew.fastow@enron.com'
p260
sg11
g5
sg12
I-1386055
sg13
I0
sg14
g5
sg15
g5
sg16
g5
sg17
g5
sg18
I277464
sg19
g5
sg20
I1300000
sg21
I1794412
sg22
g5
sg23
I1794412
sg24
I440698
sg25
I2424083
sg26
I0
sg27
g5
ssS'FOY JOE'
p261
(dp262
g3
I57
sg4
I181755
sg6
g5
sg7
I00
sg8
g5
sg9
S'tracy.foy@enron.com'
p263
sg11
I0
sg12
g5
sg13
F0.0
sg14
g5
sg15
I2
sg16
g5
sg17
I13
sg18
g5
sg19
g5
sg20
g5
sg21
I343434
sg22
I0
sg23
g5
sg24
g5
sg25
I181755
sg26
F0.0
sg27
I343434
ssS'CALGER CHRISTOPHER F'
p264
(dp265
g3
I2598
sg4
g5
sg6
I35818
sg7
I01
sg8
I375304
sg9
S'christopher.calger@enron.com'
p266
sg11
I199
sg12
I-262500
sg13
F0.07659738260200154
sg14
g5
sg15
I2188
sg16
g5
sg17
I144
sg18
I486
sg19
g5
sg20
I1250000
sg21
I126027
sg22
I25
sg23
I126027
sg24
I240189
sg25
I1639297
sg26
F0.1736111111111111
sg27
g5
ssS'RICE KENNETH D'
p267
(dp268
g3
I905
sg4
g5
sg6
I46950
sg7
I01
sg8
I1617011
sg9
S'ken.rice@enron.com'
p269
sg11
I42
sg12
I-3504386
sg13
F0.04640883977900553
sg14
g5
sg15
I864
sg16
g5
sg17
I18
sg18
I174839
sg19
g5
sg20
I1750000
sg21
I22542539
sg22
I4
sg23
I2748364
sg24
I420636
sg25
I505050
sg26
F0.2222222222222222
sg27
I19794175
ssS'KAMINSKI WINCENTY J'
p270
(dp271
g3
I4607
sg4
g5
sg6
I83585
sg7
I00
sg8
I323466
sg9
S'vince.kaminski@enron.com'
p272
sg11
I41
sg12
g5
sg13
F0.008899500759713479
sg14
g5
sg15
I583
sg16
g5
sg17
I14368
sg18
I4669
sg19
g5
sg20
I400000
sg21
I976037
sg22
I171
sg23
I126027
sg24
I275101
sg25
I1086821
sg26
F0.011901447661469933
sg27
I850010
ssS'LOCKHART EUGENE E'
p273
(dp274
g3
g5
sg4
g5
sg6
g5
sg7
I00
sg8
g5
sg9
g5
sg11
g5
sg12
g5
sg13
I0
sg14
g5
sg15
g5
sg16
g5
sg17
g5
sg18
g5
sg19
g5
sg20
g5
sg21
g5
sg22
g5
sg23
g5
sg24
g5
sg25
g5
sg26
I0
sg27
g5
ssS'COX DAVID'
p275
(dp276
g3
I102
sg4
g5
sg6
I27861
sg7
I00
sg8
g5
sg9
S'chip.cox@enron.com'
p277
sg11
I0
sg12
I-41250
sg13
F0.0
sg14
g5
sg15
I71
sg16
g5
sg17
I33
sg18
I494
sg19
g5
sg20
I800000
sg21
I495633
sg22
I4
sg23
I378082
sg24
I314288
sg25
I1101393
sg26
F0.12121212121212122
sg27
I117551
ssS'OVERDYKE JR JERE C'
p278
(dp279
g3
g5
sg4
g5
sg6
I18834
sg7
I00
sg8
I135836
sg9
S'jere.overdyke@enron.com'
p280
sg11
g5
sg12
g5
sg13
I0
sg14
g5
sg15
g5
sg16
g5
sg17
g5
sg18
I176
sg19
g5
sg20
g5
sg21
I7307594
sg22
g5
sg23
I2041016
sg24
I94941
sg25
I249787
sg26
I0
sg27
I5266578
ssS'PEREIRA PAULO V. FERRAZ'
p281
(dp282
g3
g5
sg4
g5
sg6
I27942
sg7
I00
sg8
g5
sg9
g5
sg11
g5
sg12
I-101250
sg13
I0
sg14
g5
sg15
g5
sg16
g5
sg17
g5
sg18
g5
sg19
I101250
sg20
g5
sg21
g5
sg22
g5
sg23
g5
sg24
g5
sg25
I27942
sg26
I0
sg27
g5
ssS'STABLER FRANK'
p283
(dp284
g3
g5
sg4
g5
sg6
I16514
sg7
I00
sg8
g5
sg9
S'frank.stabler@enron.com'
p285
sg11
g5
sg12
g5
sg13
I0
sg14
g5
sg15
g5
sg16
g5
sg17
g5
sg18
I356071
sg19
g5
sg20
I500000
sg21
I511734
sg22
g5
sg23
I511734
sg24
I239502
sg25
I1112087
sg26
I0
sg27
g5
ssS'SKILLING JEFFREY K'
p286
(dp287
g3
I3627
sg4
g5
sg6
I29336
sg7
I01
sg8
I1920000
sg9
S'jeff.skilling@enron.com'
p288
sg11
I88
sg12
g5
sg13
F0.0242624758753791
sg14
g5
sg15
I2042
sg16
g5
sg17
I108
sg18
I22122
sg19
g5
sg20
I5600000
sg21
I26093672
sg22
I30
sg23
I6843672
sg24
I1111258
sg25
I8682716
sg26
F0.2777777777777778
sg27
I19250000
ssS'BLAKE JR. NORMAN P'
p289
(dp290
g3
g5
sg4
g5
sg6
I1279
sg7
I00
sg8
g5
sg9
g5
sg11
g5
sg12
I-113784
sg13
I0
sg14
g5
sg15
g5
sg16
g5
sg17
g5
sg18
g5
sg19
I113784
sg20
g5
sg21
g5
sg22
g5
sg23
g5
sg24
g5
sg25
I1279
sg26
I0
sg27
g5
ssS'SHERRICK JEFFREY B'
p291
(dp292
g3
I613
sg4
g5
sg6
g5
sg7
I00
sg8
g5
sg9
S'jeffrey.sherrick@enron.com'
p293
sg11
I39
sg12
g5
sg13
F0.0636215334420881
sg14
g5
sg15
I583
sg16
g5
sg17
I25
sg18
g5
sg19
g5
sg20
g5
sg21
I1832468
sg22
I18
sg23
I405999
sg24
g5
sg25
g5
sg26
F0.72
sg27
I1426469
ssS'PRENTICE JAMES'
p294
(dp295
g3
g5
sg4
I564348
sg6
g5
sg7
I00
sg8
g5
sg9
S'james.prentice@enron.com'
p296
sg11
g5
sg12
g5
sg13
I0
sg14
g5
sg15
g5
sg16
g5
sg17
g5
sg18
g5
sg19
g5
sg20
g5
sg21
I1095040
sg22
g5
sg23
I208809
sg24
g5
sg25
I564348
sg26
I0
sg27
I886231
ssS'GRAY RODNEY'
p297
(dp298
g3
g5
sg4
I93585
sg6
g5
sg7
I00
sg8
I365625
sg9
g5
sg11
g5
sg12
g5
sg13
I0
sg14
g5
sg15
g5
sg16
g5
sg17
g5
sg18
I680833
sg19
g5
sg20
g5
sg21
g5
sg22
g5
sg23
g5
sg24
I6615
sg25
I1146658
sg26
I0
sg27
g5
ssS'THE TRAVEL AGENCY IN THE PARK'
p299
(dp300
g3
g5
sg4
g5
sg6
g5
sg7
I00
sg8
g5
sg9
g5
sg11
g5
sg12
g5
sg13
I0
sg14
g5
sg15
g5
sg16
g5
sg17
g5
sg18
I362096
sg19
g5
sg20
g5
sg21
g5
sg22
g5
sg23
g5
sg24
g5
sg25
I362096
sg26
I0
sg27
g5
ssS'UMANOFF ADAM S'
p301
(dp302
g3
I111
sg4
g5
sg6
I53122
sg7
I00
sg8
g5
sg9
S'adam.umanoff@enron.com'
p303
sg11
I12
sg12
g5
sg13
F0.10810810810810811
sg14
g5
sg15
I41
sg16
g5
sg17
I18
sg18
g5
sg19
g5
sg20
I788750
sg21
g5
sg22
I0
sg23
g5
sg24
I288589
sg25
I1130461
sg26
F0.0
sg27
g5
ssS'KEAN STEVEN J'
p304
(dp305
g3
I12754
sg4
g5
sg6
I41953
sg7
I00
sg8
I300000
sg9
S'steven.kean@enron.com'
p306
sg11
I140
sg12
g5
sg13
F0.010976948408342482
sg14
g5
sg15
I3639
sg16
g5
sg17
I6759
sg18
I1231
sg19
g5
sg20
I1000000
sg21
I6153642
sg22
I387
sg23
I4131594
sg24
I404338
sg25
I1747522
sg26
F0.05725699067909454
sg27
I2022048
ssS'FOWLER PEGGY'
p307
(dp308
g3
I517
sg4
g5
sg6
g5
sg7
I00
sg8
g5
sg9
S'kulvinder.fowler@enron.com'
p309
sg11
I0
sg12
g5
sg13
F0.0
sg14
g5
sg15
I10
sg16
g5
sg17
I36
sg18
g5
sg19
g5
sg20
g5
sg21
I1884748
sg22
I0
sg23
I560170
sg24
g5
sg25
g5
sg26
F0.0
sg27
I1324578
ssS'WASAFF GEORGE'
p310
(dp311
g3
I400
sg4
I831299
sg6
g5
sg7
I00
sg8
I200000
sg9
S'george.wasaff@enron.com'
p312
sg11
I22
sg12
I-583325
sg13
F0.055
sg14
g5
sg15
I337
sg16
g5
sg17
I30
sg18
I1425
sg19
g5
sg20
I325000
sg21
I2056427
sg22
I7
sg23
I388167
sg24
I259996
sg25
I1034395
sg26
F0.23333333333333334
sg27
I1668260
ssS'WHITE JR THOMAS E'
p313
(dp314
g3
g5
sg4
g5
sg6
I81353
sg7
I00
sg8
g5
sg9
S'thomas.white@enron.com'
p315
sg11
g5
sg12
g5
sg13
I0
sg14
g5
sg15
g5
sg16
g5
sg17
g5
sg18
I1085463
sg19
g5
sg20
I450000
sg21
I15144123
sg22
g5
sg23
I13847074
sg24
I317543
sg25
I1934359
sg26
I0
sg27
I1297049
ssS'CHRISTODOULOU DIOMEDES'
p316
(dp317
g3
g5
sg4
g5
sg6
g5
sg7
I00
sg8
g5
sg9
S'diomedes.christodoulou@enron.com'
p318
sg11
g5
sg12
g5
sg13
I0
sg14
g5
sg15
g5
sg16
g5
sg17
g5
sg18
g5
sg19
g5
sg20
g5
sg21
I6077885
sg22
g5
sg23
I950730
sg24
g5
sg25
g5
sg26
I0
sg27
I5127155
ssS'ALLEN PHILLIP K'
p319
(dp320
g3
I2902
sg4
I2869717
sg6
I13868
sg7
I00
sg8
I304805
sg9
S'phillip.allen@enron.com'
p321
sg11
I47
sg12
I-3081055
sg13
F0.016195727084769126
sg14
I-126027
sg15
I1407
sg16
g5
sg17
I2195
sg18
I152
sg19
g5
sg20
I4175000
sg21
I1729541
sg22
I65
sg23
I126027
sg24
I201955
sg25
I4484442
sg26
F0.029612756264236904
sg27
I1729541
ssS'SHARP VICTORIA T'
p322
(dp323
g3
I3136
sg4
I187469
sg6
I116337
sg7
I00
sg8
I422158
sg9
S'vicki.sharp@enron.com'
p324
sg11
I24
sg12
g5
sg13
F0.007653061224489796
sg14
g5
sg15
I2477
sg16
g5
sg17
I136
sg18
I2401
sg19
g5
sg20
I600000
sg21
I494136
sg22
I6
sg23
I213063
sg24
I248146
sg25
I1576511
sg26
F0.04411764705882353
sg27
I281073
ssS'JAEDICKE ROBERT'
p325
(dp326
g3
g5
sg4
g5
sg6
g5
sg7
I00
sg8
g5
sg9
g5
sg11
g5
sg12
I-25000
sg13
I0
sg14
I-44093
sg15
g5
sg16
g5
sg17
g5
sg18
g5
sg19
I108750
sg20
g5
sg21
I431750
sg22
g5
sg23
I44093
sg24
g5
sg25
I83750
sg26
I0
sg27
I431750
ssS'WINOKUR JR. HERBERT S'
p327
(dp328
g3
g5
sg4
g5
sg6
I1413
sg7
I00
sg8
g5
sg9
g5
sg11
g5
sg12
I-25000
sg13
I0
sg14
g5
sg15
g5
sg16
g5
sg17
g5
sg18
g5
sg19
I108579
sg20
g5
sg21
g5
sg22
g5
sg23
g5
sg24
g5
sg25
I84992
sg26
I0
sg27
g5
ssS'BROWN MICHAEL'
p329
(dp330
g3
I1486
sg4
g5
sg6
I49288
sg7
I00
sg8
g5
sg9
S'michael.brown@enron.com'
p331
sg11
I13
sg12
g5
sg13
F0.008748317631224764
sg14
g5
sg15
I761
sg16
g5
sg17
I41
sg18
g5
sg19
g5
sg20
g5
sg21
g5
sg22
I1
sg23
g5
sg24
g5
sg25
I49288
sg26
F0.024390243902439025
sg27
g5
ssS'MCCLELLAN GEORGE'
p332
(dp333
g3
I1744
sg4
g5
sg6
I228763
sg7
I00
sg8
g5
sg9
S'george.mcclellan@enron.com'
p334
sg11
I52
sg12
I-125000
sg13
F0.02981651376146789
sg14
g5
sg15
I1469
sg16
g5
sg17
I49
sg18
I51587
sg19
g5
sg20
I900000
sg21
I947861
sg22
I0
sg23
I441096
sg24
I263413
sg25
I1318763
sg26
F0.0
sg27
I506765
ssS'HUGHES JAMES A'
p335
(dp336
g3
I719
sg4
g5
sg6
g5
sg7
I00
sg8
g5
sg9
S'james.hughes@enron.com'
p337
sg11
I35
sg12
g5
sg13
F0.048678720445062586
sg14
g5
sg15
I589
sg16
g5
sg17
I34
sg18
g5
sg19
g5
sg20
g5
sg21
I1118394
sg22
I5
sg23
I363428
sg24
g5
sg25
g5
sg26
F0.14705882352941177
sg27
I754966
ssS'REYNOLDS LAWRENCE'
p338
(dp339
g3
g5
sg4
I51365
sg6
I8409
sg7
I00
sg8
I156250
sg9
g5
sg11
g5
sg12
I-200000
sg13
I0
sg14
I-140264
sg15
g5
sg16
g5
sg17
g5
sg18
I202052
sg19
g5
sg20
I100000
sg21
I4221891
sg22
g5
sg23
I201483
sg24
I76399
sg25
I394475
sg26
I0
sg27
I4160672
ssS'PICKERING MARK R'
p340
(dp341
g3
I898
sg4
g5
sg6
I31653
sg7
I00
sg8
g5
sg9
S'mark.pickering@enron.com'
p342
sg11
I7
sg12
g5
sg13
F0.0077951002227171495
sg14
g5
sg15
I728
sg16
I400000
sg17
I67
sg18
g5
sg19
g5
sg20
I300000
sg21
I28798
sg22
I0
sg23
g5
sg24
I655037
sg25
I1386690
sg26
F0.0
sg27
I28798
ssS'CARTER REBECCA C'
p343
(dp344
g3
I312
sg4
g5
sg6
g5
sg7
I00
sg8
I75000
sg9
S'rebecca.carter@enron.com'
p345
sg11
I29
sg12
I-159792
sg13
F0.09294871794871795
sg14
I-307301
sg15
I196
sg16
g5
sg17
I15
sg18
I540
sg19
g5
sg20
I300000
sg21
g5
sg22
I7
sg23
I307301
sg24
I261809
sg25
I477557
sg26
F0.4666666666666667
sg27
g5
ssS'BUCHANAN HAROLD G'
p346
(dp347
g3
I1088
sg4
g5
sg6
I600
sg7
I00
sg8
I304805
sg9
S'john.buchanan@enron.com'
p348
sg11
I0
sg12
g5
sg13
F0.0
sg14
g5
sg15
I23
sg16
g5
sg17
I125
sg18
I1215
sg19
g5
sg20
I500000
sg21
I1014505
sg22
I0
sg23
I189041
sg24
I248017
sg25
I1054637
sg26
F0.0
sg27
I825464
ssS'YEAP SOON'
p349
(dp350
g3
g5
sg4
g5
sg6
I55097
sg7
I00
sg8
g5
sg9
g5
sg11
g5
sg12
g5
sg13
I0
sg14
g5
sg15
g5
sg16
g5
sg17
g5
sg18
g5
sg19
g5
sg20
g5
sg21
I192758
sg22
g5
sg23
g5
sg24
g5
sg25
I55097
sg26
I0
sg27
I192758
ssS'MURRAY JULIA H'
p351
(dp352
g3
I2192
sg4
g5
sg6
I57580
sg7
I00
sg8
I125000
sg9
S'julia.murray@enron.com'
p353
sg11
I11
sg12
g5
sg13
F0.005018248175182482
sg14
g5
sg15
I395
sg16
g5
sg17
I45
sg18
I330
sg19
g5
sg20
I400000
sg21
I597461
sg22
I2
sg23
I196983
sg24
I229284
sg25
I812194
sg26
F0.044444444444444446
sg27
I400478
ssS'GARLAND C KEVIN'
p354
(dp355
g3
I209
sg4
g5
sg6
I48405
sg7
I00
sg8
I375304
sg9
S'kevin.garland@enron.com'
p356
sg11
I10
sg12
g5
sg13
F0.04784688995215311
sg14
g5
sg15
I178
sg16
g5
sg17
I44
sg18
I60814
sg19
g5
sg20
I850000
sg21
I896153
sg22
I27
sg23
I259907
sg24
I231946
sg25
I1566469
sg26
F0.6136363636363636
sg27
I636246
ssS'DODSON KEITH'
p357
(dp358
g3
I176
sg4
g5
sg6
I28164
sg7
I00
sg8
g5
sg9
S'keith.dodson@enron.com'
p359
sg11
I10
sg12
g5
sg13
F0.056818181818181816
sg14
g5
sg15
I114
sg16
g5
sg17
I14
sg18
I774
sg19
g5
sg20
I70000
sg21
g5
sg22
I3
sg23
g5
sg24
I221003
sg25
I319941
sg26
F0.21428571428571427
sg27
g5
ssS'YEAGER F SCOTT'
p360
(dp361
g3
g5
sg4
g5
sg6
I53947
sg7
I01
sg8
g5
sg9
S'scott.yeager@enron.com'
p362
sg11
g5
sg12
g5
sg13
I0
sg14
g5
sg15
g5
sg16
g5
sg17
g5
sg18
I147950
sg19
g5
sg20
g5
sg21
I11884758
sg22
g5
sg23
I3576206
sg24
I158403
sg25
I360300
sg26
I0
sg27
I8308552
ssS'HIRKO JOSEPH'
p363
(dp364
g3
g5
sg4
I10259
sg6
I77978
sg7
I01
sg8
g5
sg9
S'joe.hirko@enron.com'
p365
sg11
g5
sg12
g5
sg13
I0
sg14
g5
sg15
g5
sg16
g5
sg17
g5
sg18
I2856
sg19
g5
sg20
g5
sg21
I30766064
sg22
g5
sg23
g5
sg24
g5
sg25
I91093
sg26
I0
sg27
I30766064
ssS'DIETRICH JANET R'
p366
(dp367
g3
I2572
sg4
g5
sg6
I3475
sg7
I00
sg8
I556416
sg9
S'janet.dietrich@enron.com'
p368
sg11
I305
sg12
g5
sg13
F0.11858475894245724
sg14
g5
sg15
I1902
sg16
g5
sg17
I63
sg18
I473
sg19
g5
sg20
I600000
sg21
I1865087
sg22
I14
sg23
I315068
sg24
I250100
sg25
I1410464
sg26
F0.2222222222222222
sg27
I1550019
ssS'DERRICK JR. JAMES V'
p369
(dp370
g3
I2181
sg4
g5
sg6
I51124
sg7
I00
sg8
I484000
sg9
S'james.derrick@enron.com'
p371
sg11
I64
sg12
I-1284000
sg13
F0.029344337459880788
sg14
I-1787380
sg15
I1401
sg16
g5
sg17
I909
sg18
I7482
sg19
g5
sg20
I800000
sg21
I8831913
sg22
I20
sg23
I1787380
sg24
I492375
sg25
I550981
sg26
F0.022002200220022004
sg27
I8831913
ssS'FREVERT MARK A'
p372
(dp373
g3
I3275
sg4
I6426990
sg6
I86987
sg7
I00
sg8
I1617011
sg9
S'mark.frevert@enron.com'
p374
sg11
I242
sg12
I-3367011
sg13
F0.07389312977099237
sg14
g5
sg15
I2979
sg16
I2000000
sg17
I21
sg18
I7427621
sg19
g5
sg20
I2000000
sg21
I14622185
sg22
I6
sg23
I4188667
sg24
I1060932
sg25
I17252530
sg26
F0.2857142857142857
sg27
I10433518
ssS'PAI LOU L'
p375
(dp376
g3
g5
sg4
g5
sg6
I32047
sg7
I00
sg8
g5
sg9
S'lou.pai@enron.com'
p377
sg11
g5
sg12
g5
sg13
I0
sg14
g5
sg15
g5
sg16
g5
sg17
g5
sg18
I1829457
sg19
g5
sg20
I1000000
sg21
I23817930
sg22
g5
sg23
I8453763
sg24
I261879
sg25
I3123383
sg26
I0
sg27
I15364167
ssS'HAYSLETT RODERICK J'
p378
(dp379
g3
I2649
sg4
g5
sg6
g5
sg7
I00
sg8
g5
sg9
S'rod.hayslett@enron.com'
p380
sg11
I35
sg12
g5
sg13
F0.01321253303133258
sg14
g5
sg15
I571
sg16
g5
sg17
I1061
sg18
g5
sg19
g5
sg20
g5
sg21
I346663
sg22
I38
sg23
I346663
sg24
g5
sg25
g5
sg26
F0.03581526861451461
sg27
g5
ssS'BAY FRANKLIN R'
p381
(dp382
g3
g5
sg4
I260455
sg6
I129142
sg7
I00
sg8
g5
sg9
S'frank.bay@enron.com'
p383
sg11
g5
sg12
I-201641
sg13
I0
sg14
I-82782
sg15
g5
sg16
g5
sg17
g5
sg18
I69
sg19
g5
sg20
I400000
sg21
I63014
sg22
g5
sg23
I145796
sg24
I239671
sg25
I827696
sg26
I0
sg27
g5
ssS'MCCARTY DANNY J'
p384
(dp385
g3
I1433
sg4
g5
sg6
g5
sg7
I00
sg8
g5
sg9
S'danny.mccarty@enron.com'
p386
sg11
I25
sg12
g5
sg13
F0.017445917655268667
sg14
g5
sg15
I508
sg16
g5
sg17
I215
sg18
g5
sg19
g5
sg20
g5
sg21
I758931
sg22
I2
sg23
I94556
sg24
g5
sg25
g5
sg26
F0.009302325581395349
sg27
I664375
ssS'FUGH JOHN L'
p387
(dp388
g3
g5
sg4
I50591
sg6
g5
sg7
I00
sg8
g5
sg9
g5
sg11
g5
sg12
g5
sg13
I0
sg14
g5
sg15
g5
sg16
g5
sg17
g5
sg18
g5
sg19
g5
sg20
g5
sg21
I176378
sg22
g5
sg23
g5
sg24
g5
sg25
I50591
sg26
I0
sg27
I176378
ssS'SCRIMSHAW MATTHEW'
p389
(dp390
g3
g5
sg4
g5
sg6
g5
sg7
I00
sg8
g5
sg9
S'matthew.scrimshaw@enron.com'
p391
sg11
g5
sg12
g5
sg13
I0
sg14
g5
sg15
g5
sg16
g5
sg17
g5
sg18
g5
sg19
g5
sg20
g5
sg21
I759557
sg22
g5
sg23
g5
sg24
g5
sg25
g5
sg26
I0
sg27
I759557
ssS'KOENIG MARK E'
p392
(dp393
g3
I2374
sg4
g5
sg6
I127017
sg7
I01
sg8
I300000
sg9
S'mark.koenig@enron.com'
p394
sg11
I53
sg12
g5
sg13
F0.02232518955349621
sg14
g5
sg15
I2271
sg16
g5
sg17
I61
sg18
I150458
sg19
g5
sg20
I700000
sg21
I1920055
sg22
I15
sg23
I1248318
sg24
I309946
sg25
I1587421
sg26
F0.2459016393442623
sg27
I671737
ssS'SAVAGE FRANK'
p395
(dp396
g3
g5
sg4
g5
sg6
g5
sg7
I00
sg8
g5
sg9
g5
sg11
g5
sg12
I-121284
sg13
I0
sg14
g5
sg15
g5
sg16
g5
sg17
g5
sg18
g5
sg19
I125034
sg20
g5
sg21
g5
sg22
g5
sg23
g5
sg24
g5
sg25
I3750
sg26
I0
sg27
g5
ssS'IZZO LAWRENCE L'
p397
(dp398
g3
I496
sg4
g5
sg6
I28093
sg7
I00
sg8
I312500
sg9
S'larry.izzo@enron.com'
p399
sg11
I28
sg12
g5
sg13
F0.056451612903225805
sg14
g5
sg15
I437
sg16
g5
sg17
I19
sg18
I1553729
sg19
g5
sg20
g5
sg21
I5819980
sg22
I5
sg23
I3654808
sg24
I85274
sg25
I1979596
sg26
F0.2631578947368421
sg27
I2165172
ssS'TILNEY ELIZABETH A'
p400
(dp401
g3
I460
sg4
g5
sg6
g5
sg7
I00
sg8
I275000
sg9
S'elizabeth.tilney@enron.com'
p402
sg11
I10
sg12
I-575000
sg13
F0.021739130434782608
sg14
g5
sg15
I379
sg16
g5
sg17
I19
sg18
I152055
sg19
g5
sg20
I300000
sg21
I1168042
sg22
I11
sg23
I576792
sg24
I247338
sg25
I399393
sg26
F0.5789473684210527
sg27
I591250
ssS'MARTIN AMANDA K'
p403
(dp404
g3
I1522
sg4
I85430
sg6
I8211
sg7
I00
sg8
I5145434
sg9
S'a..martin@enron.com'
p405
sg11
I8
sg12
g5
sg13
F0.005256241787122208
sg14
g5
sg15
I477
sg16
g5
sg17
I230
sg18
I2818454
sg19
g5
sg20
g5
sg21
I2070306
sg22
I0
sg23
g5
sg24
I349487
sg25
I8407016
sg26
F0.0
sg27
I2070306
ssS'BUY RICHARD B'
p406
(dp407
g3
I3523
sg4
I649584
sg6
g5
sg7
I00
sg8
I769862
sg9
S'rick.buy@enron.com'
p408
sg11
I156
sg12
I-694862
sg13
F0.04428044280442804
sg14
g5
sg15
I2333
sg16
g5
sg17
I1053
sg18
I400572
sg19
g5
sg20
I900000
sg21
I3444470
sg22
I71
sg23
I901657
sg24
I330546
sg25
I2355702
sg26
F0.06742640075973409
sg27
I2542813
ssS'GRAMM WENDY L'
p409
(dp410
g3
g5
sg4
g5
sg6
g5
sg7
I00
sg8
g5
sg9
g5
sg11
g5
sg12
g5
sg13
I0
sg14
g5
sg15
g5
sg16
g5
sg17
g5
sg18
g5
sg19
I119292
sg20
g5
sg21
g5
sg22
g5
sg23
g5
sg24
g5
sg25
I119292
sg26
I0
sg27
g5
ssS'CAUSEY RICHARD A'
p411
(dp412
g3
I1892
sg4
g5
sg6
I30674
sg7
I01
sg8
I350000
sg9
S'richard.causey@enron.com'
p413
sg11
I58
sg12
I-235000
sg13
F0.0306553911205074
sg14
g5
sg15
I1585
sg16
g5
sg17
I49
sg18
I307895
sg19
g5
sg20
I1000000
sg21
I2502063
sg22
I12
sg23
I2502063
sg24
I415189
sg25
I1868758
sg26
F0.24489795918367346
sg27
g5
ssS'TAYLOR MITCHELL S'
p414
(dp415
g3
I533
sg4
I227449
sg6
g5
sg7
I00
sg8
g5
sg9
S'mitchell.taylor@enron.com'
p416
sg11
I0
sg12
g5
sg13
F0.0
sg14
g5
sg15
I300
sg16
g5
sg17
I29
sg18
g5
sg19
g5
sg20
I600000
sg21
I3745048
sg22
I0
sg23
I563798
sg24
I265214
sg25
I1092663
sg26
F0.0
sg27
I3181250
ssS'DONAHUE JR JEFFREY M'
p417
(dp418
g3
I865
sg4
g5
sg6
I96268
sg7
I00
sg8
g5
sg9
S'jeff.donahue@enron.com'
p419
sg11
I188
sg12
I-300000
sg13
F0.21734104046242775
sg14
g5
sg15
I772
sg16
g5
sg17
I22
sg18
I891
sg19
g5
sg20
I800000
sg21
I1080988
sg22
I11
sg23
I315068
sg24
I278601
sg25
I875760
sg26
F0.5
sg27
I765920
ssS'GLISAN JR BEN F'
p420
(dp421
g3
I873
sg4
g5
sg6
I125978
sg7
I01
sg8
I71023
sg9
S'ben.glisan@enron.com'
p422
sg11
I52
sg12
g5
sg13
F0.05956471935853379
sg14
g5
sg15
I874
sg16
g5
sg17
I16
sg18
I200308
sg19
g5
sg20
I600000
sg21
I778546
sg22
I6
sg23
I393818
sg24
I274975
sg25
I1272284
sg26
F0.375
sg27
I384728
ss.